target datalayout = "e-m:e-p270:32:32-p271:32:32-p272:64:64-i64:64-i128:128-f80:128-n8:16:32:64-S128"
target triple = "x86_64-pc-linux-gnu"

; Function Attrs: mustprogress nounwind uwtable
define hidden noundef i64 @_ZN6Assimp4Ogre13VertexElement14ComponentCountENS1_4TypeE(i32 noundef %0) #0 align 2 {
  %2 = alloca i64, align 8
  %3 = alloca i32, align 4
  store i32 %0, ptr %3, align 4
  %4 = load i32, ptr %3, align 4
  switch i32 %4, label %9 [
    i32 4, label %5
    i32 11, label %5
    i32 10, label %5
    i32 0, label %5
    i32 12, label %5
    i32 5, label %5
    i32 16, label %5
    i32 20, label %5
    i32 24, label %5
    i32 1, label %6
    i32 13, label %6
    i32 6, label %6
    i32 17, label %6
    i32 21, label %6
    i32 25, label %6
    i32 2, label %7
    i32 14, label %7
    i32 7, label %7
    i32 18, label %7
    i32 22, label %7
    i32 26, label %7
    i32 3, label %8
    i32 15, label %8
    i32 8, label %8
    i32 19, label %8
    i32 23, label %8
    i32 27, label %8
    i32 9, label %8
  ]

5:                                                ; preds = %1, %1, %1, %1, %1, %1, %1, %1, %1
  store i64 1, ptr %2, align 8
  br label %10

6:                                                ; preds = %1, %1, %1, %1, %1, %1
  store i64 2, ptr %2, align 8
  br label %10

7:                                                ; preds = %1, %1, %1, %1, %1, %1
  store i64 3, ptr %2, align 8
  br label %10

8:                                                ; preds = %1, %1, %1, %1, %1, %1, %1
  store i64 4, ptr %2, align 8
  br label %10

9:                                                ; preds = %1
  store i64 0, ptr %2, align 8
  br label %10

10:                                               ; preds = %9, %8, %7, %6, %5
  %11 = load i64, ptr %2, align 8
  ret i64 %11
}